Certificate:
    Data:
        Version: 3 (0x2)
        Serial Number: 1 (0x1)
    Signature Algorithm: sha256WithRSAEncryption
        Issuer: CN=devcert
        Validity
            Not Before: Apr 19 13:02:43 2020 GMT
            Not After : Jul 23 13:02:43 2022 GMT
        Subject: CN=localhost
        Subject Public Key Info:
            Public Key Algorithm: rsaEncryption
                Public-Key: (2048 bit)
                Modulus:
                    00:ef:64:52:d8:51:65:90:9f:1e:e2:11:09:aa:8d:
                    47:5a:ee:21:7c:39:de:c7:37:9c:db:41:02:f2:27:
                    e3:24:4e:f3:0a:19:a0:68:b7:f1:97:7e:24:7d:df:
                    6f:ac:c3:f3:1e:d4:a1:62:8c:27:fa:45:bf:62:d4:
                    fa:3a:8f:df:4b:eb:da:e2:58:f4:00:b3:85:1e:60:
                    fb:1b:c8:27:49:eb:7e:b6:9c:6d:83:04:36:9d:fa:
                    8b:d7:8d:19:c5:55:94:b5:6b:3f:09:3d:b6:e3:22:
                    19:80:67:e4:a5:77:a5:56:d2:ce:47:e2:13:b2:06:
                    51:87:fb:10:4b:b7:30:0b:9b:65:09:56:e7:93:bd:
                    a5:d6:1a:3e:ed:cb:fc:fd:f4:93:2f:cc:f9:c3:92:
                    eb:c3:28:9b:1d:ab:75:03:ad:d3:95:ae:5d:26:0d:
                    6f:b6:00:0a:48:6d:c6:57:a4:bc:56:17:8d:9d:d2:
                    21:df:16:af:0f:d6:b4:fc:40:76:97:ee:5d:42:64:
                    f5:6d:0a:19:47:28:f0:a1:8c:e4:b6:61:ad:c9:a8:
                    ac:4e:be:65:55:b6:cb:51:6a:aa:06:5c:54:c2:48:
                    79:11:c6:62:76:4c:96:04:53:62:13:a2:ab:65:93:
                    00:b6:54:07:bc:ec:39:97:34:38:b9:d0:89:12:6b:
                    fd:e7
                Exponent: 65537 (0x10001)
        X509v3 extensions:
            X509v3 Basic Constraints: critical
                CA:FALSE
            X509v3 Subject Key Identifier: 
                ED:98:72:85:DB:76:F7:C5:77:81:3C:76:C0:BB:65:57:D0:3E:C7:54
            X509v3 Authority Key Identifier: 
                keyid:9E:8D:28:E7:1E:B0:77:18:9E:82:9A:9C:28:84:C5:E7:3B:AD:0F:B5
                DirName:/CN=devcert
                serial:8F:A5:50:7D:FA:7A:D9:E7

            X509v3 Key Usage: critical
                Digital Signature, Key Encipherment
            X509v3 Extended Key Usage: 
                TLS Web Server Authentication
            X509v3 Subject Alternative Name: 
                DNS:localhost, DNS:*.localhost
    Signature Algorithm: sha256WithRSAEncryption
         77:7c:6a:15:e4:c8:c6:c0:77:29:37:03:88:0b:79:a5:56:a7:
         f1:b0:7d:d1:01:f6:f6:0b:ac:02:d2:32:2c:f6:2a:3f:44:30:
         30:f3:12:84:19:36:b6:ec:c9:c1:e4:ed:43:52:89:16:66:da:
         72:84:81:04:1d:41:9b:9e:e5:c2:a8:5f:78:56:dc:bc:9d:23:
         92:6a:59:2a:9e:84:5a:74:98:a0:76:99:1b:34:00:c9:26:63:
         a8:d5:37:9b:32:fa:7e:69:95:37:33:50:75:b5:17:1f:58:0e:
         75:30:a3:db:e6:ef:e6:4e:91:19:97:23:cf:99:af:90:9f:4e:
         07:60:ca:07:4e:fb:10:aa:8d:b1:25:12:7f:68:99:be:33:d3:
         37:b0:a8:b8:39:67:79:6d:5f:48:6c:48:d9:c7:1b:6a:0e:b4:
         c1:bd:4a:f8:e1:4c:32:a2:2b:1e:b2:33:7e:5d:6a:b1:9d:a3:
         f3:55:b9:bf:82:f1:a8:43:9c:f2:be:7e:18:96:3b:a0:19:d4:
         cc:3d:9d:be:f4:b7:3e:4e:d5:1d:c9:9e:df:fe:ef:36:86:ee:
         81:a5:19:73:11:01:f7:9a:9e:04:96:00:d6:74:a7:c1:be:fb:
         45:8f:c5:19:a3:6d:6c:f3:a7:d9:bd:58:90:12:7f:f4:74:c1:
         e9:ef:59:18
-----BEGIN CERTIFICATE-----
MIIDXjCCAkagAwIBAgIBATANBgkqhkiG9w0BAQsFADASMRAwDgYDVQQDDAdkZXZj
ZXJ0MB4XDTIwMDQxOTEzMDI0M1oXDTIyMDcyMzEzMDI0M1owFDESMBAGA1UEAwwJ
bG9jYWxob3N0MIIBIjANBgkqhkiG9w0BAQEFAAOCAQ8AMIIBCgKCAQEA72RS2FFl
kJ8e4hEJqo1HWu4hfDnexzec20EC8ifjJE7zChmgaLfxl34kfd9vrMPzHtShYown
+kW/YtT6Oo/fS+va4lj0ALOFHmD7G8gnSet+tpxtgwQ2nfqL140ZxVWUtWs/CT22
4yIZgGfkpXelVtLOR+ITsgZRh/sQS7cwC5tlCVbnk72l1ho+7cv8/fSTL8z5w5Lr
wyibHat1A63Tla5dJg1vtgAKSG3GV6S8VheNndIh3xavD9a0/EB2l+5dQmT1bQoZ
RyjwoYzktmGtyaisTr5lVbbLUWqqBlxUwkh5EcZidkyWBFNiE6KrZZMAtlQHvOw5
lzQ4udCJEmv95wIDAQABo4G8MIG5MAwGA1UdEwEB/wQCMAAwHQYDVR0OBBYEFO2Y
coXbdvfFd4E8dsC7ZVfQPsdUMEIGA1UdIwQ7MDmAFJ6NKOcesHcYnoKanCiExec7
rQ+1oRakFDASMRAwDgYDVQQDDAdkZXZjZXJ0ggkAj6VQffp62ecwDgYDVR0PAQH/
BAQDAgWgMBMGA1UdJQQMMAoGCCsGAQUFBwMBMCEGA1UdEQQaMBiCCWxvY2FsaG9z
dIILKi5sb2NhbGhvc3QwDQYJKoZIhvcNAQELBQADggEBAHd8ahXkyMbAdyk3A4gL
eaVWp/GwfdEB9vYLrALSMiz2Kj9EMDDzEoQZNrbsycHk7UNSiRZm2nKEgQQdQZue
5cKoX3hW3LydI5JqWSqehFp0mKB2mRs0AMkmY6jVN5sy+n5plTczUHW1Fx9YDnUw
o9vm7+ZOkRmXI8+Zr5CfTgdgygdO+xCqjbElEn9omb4z0zewqLg5Z3ltX0hsSNnH
G2oOtMG9SvjhTDKiKx6yM35darGdo/NVub+C8ahDnPK+fhiWO6AZ1Mw9nb70tz5O
1R3Jnt/+7zaG7oGlGXMRAfeangSWANZ0p8G++0WPxRmjbWzzp9m9WJASf/R0wenv
WRg=
-----END CERTIFICATE-----
